Certificate:
    Data:
        Version: 3 (0x2)
        Serial Number:
            2a:9c:a9:39:92:a0:9b:dc:57:19:78:75:3a:01:86:8b
        Signature Algorithm: sha256WithRSAEncryption
        Issuer: CN=Easy-RSA Sub-CA
        Validity
            Not Before: Nov 13 18:10:07 2024 GMT
            Not After : Feb 16 18:10:07 2027 GMT
        Subject: CN=some_certificate
        Subject Public Key Info:
            Public Key Algorithm: rsaEncryption
                Public-Key: (2048 bit)
                Modulus:
                    00:90:c1:58:8e:5e:52:a1:da:fa:a3:18:cb:db:b8:
                    e8:03:b0:52:b7:9e:a4:ec:f6:09:5b:d9:48:42:18:
                    fb:9a:f8:a2:a3:7c:98:74:31:7b:50:73:d7:fa:6e:
                    12:27:f9:2f:96:11:e9:46:18:55:10:74:36:c7:37:
                    c8:2c:ba:bd:02:28:d1:5e:ec:ad:77:c3:ee:4c:a2:
                    57:9b:5a:fc:2e:39:6f:eb:c3:d9:de:20:52:62:12:
                    be:a4:0b:f3:b8:13:ee:f6:e1:e5:ee:2b:27:16:61:
                    2d:95:ca:52:1b:f3:05:06:5a:e7:9f:ab:02:7f:76:
                    fe:7c:5d:bf:e8:5f:9c:91:63:eb:ec:33:d3:ab:3d:
                    51:43:d1:e3:57:43:c1:9d:27:fd:53:68:ca:73:06:
                    bb:43:86:ce:0f:00:63:bc:a8:29:a9:73:79:2a:f1:
                    7a:ac:c8:a8:f5:0a:fc:69:a3:72:bf:80:d1:77:c8:
                    f6:30:ca:3b:4a:e5:05:13:0e:4b:d4:a0:bd:9d:39:
                    d7:ab:8e:79:9c:ef:19:56:f9:3f:d6:ae:11:e4:d1:
                    09:ab:e0:3f:41:56:5b:5c:71:75:85:e1:4b:78:20:
                    c5:91:ec:18:bc:ca:c9:62:45:8e:f4:6d:58:a1:16:
                    94:7d:cf:15:3f:08:93:ac:e5:79:b5:1a:5a:c7:c7:
                    8b:97
                Exponent: 65537 (0x10001)
        X509v3 extensions:
            Authority Information Access: 
                OCSP - URI:http://localhost:2061/
            X509v3 Basic Constraints: 
                CA:FALSE
            X509v3 Subject Key Identifier: 
                52:0D:85:CB:85:55:8F:50:EC:59:00:D0:E0:82:13:D3:B2:AB:1F:68
            X509v3 Authority Key Identifier: 
                keyid:34:99:50:A5:B0:55:D4:78:A2:8D:D8:B9:9D:71:B8:27:08:DC:38:9D
                DirName:/CN=Easy-RSA CA
                serial:3A:6E:2B:AD:C7:1B:FE:C2:23:CB:6A:A9:2E:9D:3E:6E
            X509v3 Key Usage: 
                Digital Signature, Non Repudiation
    Signature Algorithm: sha256WithRSAEncryption
    Signature Value:
        6f:2a:cd:36:33:f0:e0:d3:d5:df:8b:74:e1:d3:51:f7:c1:f1:
        fa:8d:55:77:ca:fa:9f:60:7e:44:c9:cd:2b:01:23:71:df:71:
        9f:bb:da:82:f8:10:12:36:48:53:8e:f9:6f:37:22:8a:1e:90:
        91:b9:9d:0c:cd:ff:18:9d:b6:b7:f7:9c:97:2f:90:8f:13:fe:
        35:c1:89:55:c3:3d:f4:86:91:c2:27:58:0f:46:d6:4c:64:08:
        86:a7:87:aa:06:c1:44:38:5a:60:91:04:a3:64:12:e3:72:60:
        24:39:28:63:d4:46:d4:cc:cf:52:81:7b:55:40:a4:79:96:5c:
        2e:0a:a0:18:40:8b:8d:2b:ec:67:cd:7d:35:35:47:3d:96:18:
        3c:92:88:df:77:0e:b1:f7:63:d4:60:3b:bc:ef:14:45:e8:94:
        55:85:41:a5:33:53:3c:42:0d:f4:cd:b9:01:8a:b1:38:aa:23:
        c4:08:d6:ea:d5:13:2d:38:26:25:55:a9:ca:4b:26:35:81:91:
        fe:29:b1:c6:8c:b0:f7:56:df:31:12:8e:ec:03:98:46:8d:6e:
        33:d9:82:2d:f5:ae:05:35:9f:35:e7:ea:ad:88:f5:f0:cc:59:
        e7:28:b6:12:e8:aa:11:86:6b:3e:30:aa:cb:d4:69:64:19:21:
        40:8e:30:f1
-----BEGIN CERTIFICATE-----
MIIDfTCCAmWgAwIBAgIQKpypOZKgm9xXGXh1OgGGizANBgkqhkiG9w0BAQsFADAa
MRgwFgYDVQQDDA9FYXN5LVJTQSBTdWItQ0EwHhcNMjQxMTEzMTgxMDA3WhcNMjcw
MjE2MTgxMDA3WjAbMRkwFwYDVQQDDBBzb21lX2NlcnRpZmljYXRlMIIBIjANBgkq
hkiG9w0BAQEFAAOCAQ8AMIIBCgKCAQEAkMFYjl5Sodr6oxjL27joA7BSt56k7PYJ
W9lIQhj7mviio3yYdDF7UHPX+m4SJ/kvlhHpRhhVEHQ2xzfILLq9AijRXuytd8Pu
TKJXm1r8Ljlv68PZ3iBSYhK+pAvzuBPu9uHl7isnFmEtlcpSG/MFBlrnn6sCf3b+
fF2/6F+ckWPr7DPTqz1RQ9HjV0PBnSf9U2jKcwa7Q4bODwBjvKgpqXN5KvF6rMio
9Qr8aaNyv4DRd8j2MMo7SuUFEw5L1KC9nTnXq455nO8ZVvk/1q4R5NEJq+A/QVZb
XHF1heFLeCDFkewYvMrJYkWO9G1YoRaUfc8VPwiTrOV5tRpax8eLlwIDAQABo4G9
MIG6MDIGCCsGAQUFBwEBBCYwJDAiBggrBgEFBQcwAYYWaHR0cDovL2xvY2FsaG9z
dDoyMDYxLzAJBgNVHRMEAjAAMB0GA1UdDgQWBBRSDYXLhVWPUOxZANDgghPTsqsf
aDBNBgNVHSMERjBEgBQ0mVClsFXUeKKN2LmdcbgnCNw4naEapBgwFjEUMBIGA1UE
AwwLRWFzeS1SU0EgQ0GCEDpuK63HG/7CI8tqqS6dPm4wCwYDVR0PBAQDAgbAMA0G
CSqGSIb3DQEBCwUAA4IBAQBvKs02M/Dg09Xfi3Th01H3wfH6jVV3yvqfYH5Eyc0r
ASNx33Gfu9qC+BASNkhTjvlvNyKKHpCRuZ0Mzf8Ynba395yXL5CPE/41wYlVwz30
hpHCJ1gPRtZMZAiGp4eqBsFEOFpgkQSjZBLjcmAkOShj1EbUzM9SgXtVQKR5llwu
CqAYQIuNK+xnzX01NUc9lhg8kojfdw6x92PUYDu87xRF6JRVhUGlM1M8Qg30zbkB
irE4qiPECNbq1RMtOCYlVanKSyY1gZH+KbHGjLD3Vt8xEo7sA5hGjW4z2YIt9a4F
NZ815+qtiPXwzFnnKLYS6KoRhms+MKrL1GlkGSFAjjDx
-----END CERTIFICATE-----
