Certificate:
    Data:
        Version: 3 (0x2)
        Serial Number:
            99:8d:f4:27:c5:c1:f4:f1:f8:2a:f8:de:40:19:aa:7a
        Signature Algorithm: sha256WithRSAEncryption
        Issuer: CN=Easy-RSA Sub-CA
        Validity
            Not Before: Nov 13 18:10:05 2024 GMT
            Not After : Feb 16 18:10:05 2027 GMT
        Subject: CN=ocsp_responder
        Subject Public Key Info:
            Public Key Algorithm: rsaEncryption
                Public-Key: (2048 bit)
                Modulus:
                    00:ef:aa:5b:8b:ad:f6:bc:e2:67:1a:99:68:09:9e:
                    6c:9d:cb:e3:9d:df:e0:0d:26:a5:cc:11:9d:fd:ca:
                    b9:85:87:1c:bc:8f:4a:c1:6c:03:00:e5:8a:c2:1e:
                    f6:f1:db:d6:0d:4f:4a:0b:8f:01:19:5f:5c:1f:35:
                    9a:60:70:6b:e4:73:65:36:4e:9f:35:20:7c:9e:c7:
                    8b:d1:0e:cc:3b:1d:12:ac:20:37:85:73:b0:3c:79:
                    9d:1e:5b:ec:ee:2c:c5:9f:38:71:58:b1:08:75:f7:
                    40:2f:1a:9e:21:f0:79:df:97:69:6a:b9:ef:13:8c:
                    5b:14:a8:08:06:1f:48:8e:91:2f:c7:63:4f:f8:14:
                    30:ca:0a:ba:12:5e:6d:0b:fd:9f:47:c5:7d:19:a6:
                    16:40:c8:f0:18:e2:5a:34:4f:9f:c6:51:c7:05:66:
                    09:4d:de:e1:34:48:83:f3:66:62:57:9b:7e:fc:04:
                    03:c5:c1:00:54:72:06:a2:43:05:c8:e5:d1:22:d6:
                    7e:55:bb:5b:7b:66:b1:fd:60:c7:3b:03:53:27:b5:
                    b2:b4:5b:f2:0a:32:94:7c:36:77:e7:ca:39:4d:4b:
                    22:f4:0c:10:eb:88:7d:23:1b:28:1d:18:2b:b4:0f:
                    15:b2:69:b5:df:f8:e0:76:cc:61:f4:a8:d9:83:79:
                    0a:a1
                Exponent: 65537 (0x10001)
        X509v3 extensions:
            Authority Information Access: 
                OCSP - URI:http://localhost:2061/
            X509v3 Basic Constraints: 
                CA:FALSE
            X509v3 Key Usage: 
                Digital Signature, Non Repudiation, Key Encipherment
            X509v3 Extended Key Usage: 
                OCSP Signing
            X509v3 Subject Key Identifier: 
                87:D9:F3:BD:E0:1B:EE:0A:3C:E4:46:0D:F4:11:21:75:AC:B7:5E:EE
            X509v3 Authority Key Identifier: 
                34:99:50:A5:B0:55:D4:78:A2:8D:D8:B9:9D:71:B8:27:08:DC:38:9D
    Signature Algorithm: sha256WithRSAEncryption
    Signature Value:
        2d:1f:5b:54:54:3b:68:b3:47:87:c3:8c:d6:e8:f8:93:d8:aa:
        5b:04:d7:fc:37:9f:a5:e9:4f:b6:a7:58:55:0e:3f:d0:f3:e2:
        27:82:1a:10:d4:0d:29:de:8f:6e:dd:ac:66:74:fd:57:19:a1:
        43:8d:2c:24:c1:76:a4:8d:80:9a:e7:b4:a1:e7:24:8e:48:32:
        e7:b8:7a:c8:46:a4:7c:8b:e1:8b:be:f9:33:72:c7:10:bd:43:
        d8:a0:47:d3:38:f6:13:c7:f5:d3:a9:bd:58:f7:d3:2a:db:34:
        01:b7:15:e0:aa:10:06:74:d8:26:bd:49:f9:68:fa:9d:d5:6a:
        c7:6e:e3:b1:28:21:0f:06:43:95:46:84:38:df:7e:f7:d6:91:
        26:03:1a:d2:a1:0f:59:7a:06:5b:60:2c:36:ba:64:62:65:94:
        2f:16:4f:3a:60:02:65:aa:24:8a:dd:1b:77:0c:85:a7:e8:94:
        49:d8:86:ea:04:78:35:8f:6d:0e:8a:43:d6:bf:e1:63:d4:c4:
        c0:ac:8c:6d:77:8b:fb:63:31:34:19:1e:c0:1a:3e:49:c1:c7:
        61:7d:ef:8c:bb:d1:fb:9c:2b:49:25:d5:98:03:fb:61:df:0e:
        6c:12:4c:f1:fe:48:90:26:ea:9e:a6:6a:a5:64:2b:0c:a0:67:
        2e:bb:ed:b1
-----BEGIN CERTIFICATE-----
MIIDYzCCAkugAwIBAgIRAJmN9CfFwfTx+Cr43kAZqnowDQYJKoZIhvcNAQELBQAw
GjEYMBYGA1UEAwwPRWFzeS1SU0EgU3ViLUNBMB4XDTI0MTExMzE4MTAwNVoXDTI3
MDIxNjE4MTAwNVowGTEXMBUGA1UEAwwOb2NzcF9yZXNwb25kZXIwggEiMA0GCSqG
SIb3DQEBAQUAA4IBDwAwggEKAoIBAQDvqluLrfa84mcamWgJnmydy+Od3+ANJqXM
EZ39yrmFhxy8j0rBbAMA5YrCHvbx29YNT0oLjwEZX1wfNZpgcGvkc2U2Tp81IHye
x4vRDsw7HRKsIDeFc7A8eZ0eW+zuLMWfOHFYsQh190AvGp4h8Hnfl2lque8TjFsU
qAgGH0iOkS/HY0/4FDDKCroSXm0L/Z9HxX0ZphZAyPAY4lo0T5/GUccFZglN3uE0
SIPzZmJXm378BAPFwQBUcgaiQwXI5dEi1n5Vu1t7ZrH9YMc7A1MntbK0W/IKMpR8
NnfnyjlNSyL0DBDriH0jGygdGCu0DxWyabXf+OB2zGH0qNmDeQqhAgMBAAGjgaQw
gaEwMgYIKwYBBQUHAQEEJjAkMCIGCCsGAQUFBzABhhZodHRwOi8vbG9jYWxob3N0
OjIwNjEvMAkGA1UdEwQCMAAwCwYDVR0PBAQDAgXgMBMGA1UdJQQMMAoGCCsGAQUF
BwMJMB0GA1UdDgQWBBSH2fO94BvuCjzkRg30ESF1rLde7jAfBgNVHSMEGDAWgBQ0
mVClsFXUeKKN2LmdcbgnCNw4nTANBgkqhkiG9w0BAQsFAAOCAQEALR9bVFQ7aLNH
h8OM1uj4k9iqWwTX/DefpelPtqdYVQ4/0PPiJ4IaENQNKd6Pbt2sZnT9VxmhQ40s
JMF2pI2Amue0oeckjkgy57h6yEakfIvhi775M3LHEL1D2KBH0zj2E8f106m9WPfT
Kts0AbcV4KoQBnTYJr1J+Wj6ndVqx27jsSghDwZDlUaEON9+99aRJgMa0qEPWXoG
W2AsNrpkYmWULxZPOmACZaokit0bdwyFp+iUSdiG6gR4NY9tDopD1r/hY9TEwKyM
bXeL+2MxNBkewBo+ScHHYX3vjLvR+5wrSSXVmAP7Yd8ObBJM8f5IkCbqnqZqpWQr
DKBnLrvtsQ==
-----END CERTIFICATE-----
