Certificate:
    Data:
        Version: 3 (0x2)
        Serial Number:
            28:ef:a1:42:1c:0f:a1:ae:1d:a8:3b:83:c1:be:43:33
        Signature Algorithm: sha256WithRSAEncryption
        Issuer: CN=Easy-RSA CA
        Validity
            Not Before: Nov 13 18:10:03 2024 GMT
            Not After : Feb 16 18:10:03 2027 GMT
        Subject: CN=ocsp_responder
        Subject Public Key Info:
            Public Key Algorithm: rsaEncryption
                Public-Key: (2048 bit)
                Modulus:
                    00:ca:46:10:00:69:21:9c:97:78:37:19:62:b0:c0:
                    cf:9d:34:2a:6b:d4:ef:96:70:2e:0f:0b:df:57:be:
                    6d:19:be:36:2e:1f:11:44:d2:29:bd:c5:33:e9:7b:
                    9e:f1:03:c8:90:56:6e:bd:2e:85:f9:08:96:4f:05:
                    f8:82:6e:dd:32:9c:73:d7:d1:ce:ce:7b:77:1b:14:
                    11:2f:14:ec:e3:23:41:ac:05:d3:c8:70:c5:c2:63:
                    19:a3:e5:04:d7:25:44:cb:11:ab:91:f1:ad:54:1a:
                    32:3b:1a:fe:91:2a:ea:4e:66:ae:94:35:cb:7d:79:
                    90:93:9f:98:bc:2c:29:ec:2d:dd:a5:0d:2c:47:4f:
                    5a:a1:87:2e:9a:9e:fd:f0:8b:10:0d:6f:14:91:83:
                    4d:fb:91:c5:3d:0b:7a:ec:2c:ad:b7:85:7b:b8:8f:
                    76:a0:77:a6:3c:60:d9:5c:99:b1:9f:23:e9:21:74:
                    0e:33:3f:1a:0f:2b:96:fe:1e:d2:81:ef:37:72:ba:
                    72:60:33:e4:5a:21:38:1a:75:13:de:cc:21:9d:05:
                    3e:c8:0d:90:76:2a:76:46:14:52:50:e5:b4:29:f3:
                    c8:08:04:59:ee:17:8a:f8:47:4c:82:01:9b:0a:38:
                    0d:f5:96:8b:1f:cc:05:a8:1f:57:37:f0:0b:e4:24:
                    3b:3d
                Exponent: 65537 (0x10001)
        X509v3 extensions:
            Authority Information Access: 
                OCSP - URI:http://localhost:2060/
            X509v3 Basic Constraints: 
                CA:FALSE
            X509v3 Key Usage: 
                Digital Signature, Non Repudiation, Key Encipherment
            X509v3 Extended Key Usage: 
                OCSP Signing
            X509v3 Subject Key Identifier: 
                B6:79:AF:A0:7C:3C:41:17:B2:4A:67:D5:37:E9:67:6F:EA:DD:3E:7E
            X509v3 Authority Key Identifier: 
                F0:29:02:D8:17:6C:BF:EC:72:F9:00:0E:D3:72:74:15:2E:19:9E:2F
    Signature Algorithm: sha256WithRSAEncryption
    Signature Value:
        bf:9e:ff:ec:3e:04:47:44:c9:b0:fd:f4:99:24:e5:4f:81:eb:
        26:53:60:d3:8e:11:f1:a8:5e:8e:a9:66:48:75:b4:d9:e8:7c:
        91:47:2d:4c:f3:78:70:44:3c:36:37:43:86:a9:b7:d9:a6:63:
        7f:83:17:41:29:4c:12:0d:a9:ce:d9:c7:87:28:31:a2:ef:bf:
        ea:66:2a:ac:94:53:12:03:0f:ad:be:0c:70:51:80:5b:79:3b:
        46:22:3c:8c:15:85:37:23:d0:50:1e:7d:27:84:ae:e9:0a:d3:
        49:f9:51:89:76:ab:be:3e:9c:af:b2:84:6c:a7:1b:69:39:ff:
        98:44:76:31:d9:bb:8c:e2:fa:d0:8b:41:ca:30:cd:6f:bf:a5:
        68:26:e0:99:eb:7a:a0:b0:29:05:7f:bd:d4:22:d3:d2:14:f7:
        cb:12:be:12:25:f6:b5:86:ec:f3:dc:7d:16:9a:c4:3b:70:60:
        d4:e2:7d:a1:a8:9c:89:bf:d1:16:a7:b9:d1:eb:2c:6b:78:3b:
        c5:e0:89:d5:c2:37:99:9a:02:a0:ce:ff:cc:f0:bf:8e:31:b4:
        82:8a:88:06:fc:02:c4:22:b2:e6:ca:2b:8a:79:04:ae:41:e5:
        22:e2:53:6f:91:b8:fd:bd:e1:9c:26:13:6f:28:3d:ec:fe:7c:
        6e:e6:88:bb
-----BEGIN CERTIFICATE-----
MIIDXjCCAkagAwIBAgIQKO+hQhwPoa4dqDuDwb5DMzANBgkqhkiG9w0BAQsFADAW
MRQwEgYDVQQDDAtFYXN5LVJTQSBDQTAeFw0yNDExMTMxODEwMDNaFw0yNzAyMTYx
ODEwMDNaMBkxFzAVBgNVBAMMDm9jc3BfcmVzcG9uZGVyMIIBIjANBgkqhkiG9w0B
AQEFAAOCAQ8AMIIBCgKCAQEAykYQAGkhnJd4NxlisMDPnTQqa9TvlnAuDwvfV75t
Gb42Lh8RRNIpvcUz6Xue8QPIkFZuvS6F+QiWTwX4gm7dMpxz19HOznt3GxQRLxTs
4yNBrAXTyHDFwmMZo+UE1yVEyxGrkfGtVBoyOxr+kSrqTmaulDXLfXmQk5+YvCwp
7C3dpQ0sR09aoYcump798IsQDW8UkYNN+5HFPQt67Cytt4V7uI92oHemPGDZXJmx
nyPpIXQOMz8aDyuW/h7Sge83crpyYDPkWiE4GnUT3swhnQU+yA2Qdip2RhRSUOW0
KfPICARZ7heK+EdMggGbCjgN9ZaLH8wFqB9XN/AL5CQ7PQIDAQABo4GkMIGhMDIG
CCsGAQUFBwEBBCYwJDAiBggrBgEFBQcwAYYWaHR0cDovL2xvY2FsaG9zdDoyMDYw
LzAJBgNVHRMEAjAAMAsGA1UdDwQEAwIF4DATBgNVHSUEDDAKBggrBgEFBQcDCTAd
BgNVHQ4EFgQUtnmvoHw8QReySmfVN+lnb+rdPn4wHwYDVR0jBBgwFoAU8CkC2Bds
v+xy+QAO03J0FS4Zni8wDQYJKoZIhvcNAQELBQADggEBAL+e/+w+BEdEybD99Jkk
5U+B6yZTYNOOEfGoXo6pZkh1tNnofJFHLUzzeHBEPDY3Q4apt9mmY3+DF0EpTBIN
qc7Zx4coMaLvv+pmKqyUUxIDD62+DHBRgFt5O0YiPIwVhTcj0FAefSeErukK00n5
UYl2q74+nK+yhGynG2k5/5hEdjHZu4zi+tCLQcowzW+/pWgm4JnreqCwKQV/vdQi
09IU98sSvhIl9rWG7PPcfRaaxDtwYNTifaGonIm/0RanudHrLGt4O8XgidXCN5ma
AqDO/8zwv44xtIKKiAb8AsQisubKK4p5BK5B5SLiU2+RuP294ZwmE28oPez+fG7m
iLs=
-----END CERTIFICATE-----
